(iPlayer
Player
p1
S'{\'playerGUID\':1,\'name\':\'Player1\',\'maxPlayerEnergy\':10,\'energy\':10,\'experiencePoints\':0,\'level\':0,\'position\':\'C\',\'franchiseGUID\':0,\'playerAbilities\':{\'fielding\':{\'defense\': 0},\'batting\':{\'pitchMastery\': {\'FORK\': 0.0, \'CRV\': 0.0, \'KNCK\': 0.0, \'SPIT\': 0.0, \'FST\': 0.0, \'SINK\': 0.0, \'SLD\': 0.0, \'CHNG\': 0.0}, \'powerZones\': [1, 1, 1, 1, 1, 1, 1, 1, 1], \'zoneMastery\': [0.0, 0.0, 0.0, 0.0, 0.0, 0.0, 0.0, 0.0, 0.0], \'patience\': 0},\'pitching\':{\'control\': 0, \'pitchMastery\': {\'FORK\': 0.0, \'CRV\': 0.0, \'KNCK\': 0.0, \'SPIT\': 0.0, \'FST\': 0.0, \'SINK\': 0.0, \'SLD\': 0.0, \'CHNG\': 0.0}, \'strength\': 0, \'zoneMastery\': [0.0, 0.0, 0.0, 0.0, 0.0, 0.0, 0.0, 0.0, 0.0], \'stamina\': 0},\'running\':{\'speed\': 0},\'character\':{\'leadership\': 0, \'prestige\': 0}},\'batterStats\':{\'statType\':\'BATS\',\'atBatResults\':[[[\'SO(1,10,CRV,7,0,0-2,(0, 0),[],[])\'], ["3B(1,10,SLD,2,0,0-0,(\'?\', 223),[\'RF\'],[(1, 0, 3), (9, 1, 0)])"], [\'SO(1,10,KNCK,5,0,0-2,(0, 0),[],[])\'], ["2B(1,10,KNCK,5,0,0-2,(\'?\', 387),[\'CF\'],[(1, 0, 2)])"]], [["AO(1,10,SINK,6,0,1-2,(\'?\', 89),[\'P\'],[])"], [\'SO(1,10,FST,2,0,0-2,(0, 0),[],[])\'], ["3B(1,10,CRV,6,0,0-2,(\'?\', 396),[\'LF\'],[(1, 0, 3)])"], ["1B(1,10,SPIT,7,0,0-2,(\'?\', 392),[\'RF\'],[(1, 0, 1), (7, 3, 0)])"]], [["AO(1,10,CRV,1,0,0-2,(\'?\', 347),[\'CF\'],[])"], [\'SO(1,10,SLD,1,0,1-2,(0, 0),[],[])\'], ["AO(1,10,SINK,1,0,0-0,(\'?\', 316),[\'LF\'],[(9, 1, 1), (7, 2, 2)])"], ["AO(1,10,FORK,7,0,0-0,(\'?\', 47),[\'P\'],[])"]], [["1B(1,10,SINK,0,0,0-0,(\'?\', 189),[\'CF\'],[(1, 0, 1)])"], ["1B(1,10,SINK,5,0,0-2,(\'?\', 185),[\'LF\'],[(1, 0, 1)])"], ["AO(1,10,KNCK,7,0,0-0,(\'?\', 338),[\'CF\'],[])"], [\'SO(1,10,CHNG,2,0,0-2,(0, 0),[],[])\']], [[\'SO(1,10,KNCK,1,0,0-2,(0, 0),[],[])\'], ["GO(1,10,SLD,4,0,0-0,(\'?\', 446),[\'3B\'],[])"], ["AO(1,10,SINK,4,0,0-2,(\'?\', 74),[\'P\'],[])"], [\'SO(1,10,SLD,4,0,0-2,(0, 0),[],[])\']], [["GO(1,10,SINK,6,0,1-0,(\'?\', 73),[\'P\'],[])"], [\'SO(1,10,FST,3,0,0-2,(0, 0),[],[(9, 1, 1)])\'], [\'SO(1,10,KNCK,7,0,2-2,(0, 0),[],[(9, 1, 1)])\'], ["GO(1,10,KNCK,2,0,1-0,(\'?\', 418),[\'SS\'],[])"]], [["AO(1,10,FST,8,0,0-0,(\'?\', 69),[\'P\'],[])"], ["2B(1,10,KNCK,7,0,0-2,(\'?\', 374),[\'LF\'],[(1, 0, 2)])"], [\'SO(1,10,CRV,4,0,0-2,(0, 0),[],[(8, 1, 1)])\'], [\'SO(1,10,SLD,4,0,0-2,(0, 0),[],[(8, 2, 2), (7, 3, 3)])\']], [["3B(1,10,CRV,0,0,0-0,(\'?\', 446),[\'RF\'],[(1, 0, 3)])"], ["1B(1,10,SLD,4,0,1-2,(\'?\', 210),[\'CF\'],[(1, 0, 1), (9, 2, 3)])"], [\'SO(1,10,SLD,3,0,2-2,(0, 0),[],[])\'], [\'SO(1,10,CRV,3,0,0-2,(0, 0),[],[])\'], ["GO(1,10,SLD,0,0,2-1,(\'?\', 442),[\'SS\'],[(9, 1, 1)])"], ["GO(1,10,KNCK,5,0,1-0,(\'?\', 127),[\'2B\'],[(9, 1, 1)])"]], [["GO(1,10,CRV,0,0,0-1,(\'?\', 254),[\'SS\'],[])"], [\'SO(1,10,SINK,2,0,0-2,(0, 0),[],[(8, 1, 1)])\'], [\'SO(1,10,KNCK,8,0,0-2,(0, 0),[],[])\'], [\'SO(1,10,SINK,2,0,0-2,(0, 0),[],[])\'], [\'SO(1,10,FORK,0,0,0-2,(0, 0),[],[(8, 3, 3)])\'], [\'SO(1,10,CRV,8,0,0-2,(0, 0),[],[])\']], [[\'SO(1,10,SLD,6,0,0-2,(0, 0),[],[])\'], [\'SO(1,10,KNCK,2,0,0-2,(0, 0),[],[])\'], [\'SO(1,10,SINK,6,0,0-2,(0, 0),[],[])\'], ["GO(1,10,SPIT,3,0,0-0,(\'?\', 18),[\'C\'],[])"]], [["GO(1,10,SLD,5,0,0-1,(\'?\', 394),[\'3B\'],[])"], ["GO(1,10,SLD,7,0,0-0,(\'?\', 101),[\'SS\'],[])"], [\'SO(1,10,CRV,3,0,0-2,(0, 0),[],[])\'], [\'SO(1,10,CHNG,5,0,0-2,(0, 0),[],[])\']], [["2B(1,10,CHNG,2,0,0-2,(\'?\', 396),[\'CF\'],[(1, 0, 2)])"], ["AO(1,10,CRV,6,0,0-1,(\'?\', 259),[\'LF\'],[(9, 2, 2)])"], ["GO(1,10,SPIT,2,0,0-0,(\'?\', 297),[\'SS\'],[])"], [\'SO(1,10,CHNG,0,0,0-2,(0, 0),[],[])\']], [[\'SO(1,10,SLD,5,0,0-2,(0, 0),[],[])\'], ["1B(1,10,FORK,4,0,0-2,(\'?\', 22),[\'RF\'],[(1, 0, 1)])"], [\'SO(1,10,FST,5,0,0-2,(0, 0),[],[(9, 1, 1)])\'], [\'SO(1,10,KNCK,4,0,0-2,(0, 0),[],[])\']], [[\'SO(1,10,SLD,6,0,0-2,(0, 0),[],[])\'], ["1B(1,10,SLD,7,0,0-2,(\'?\', 86),[\'CF\'],[(1, 0, 1)])"], [\'SO(1,10,KNCK,8,0,2-2,(0, 0),[],[(9, 1, 1)])\'], [\'SO(1,10,SINK,8,0,0-2,(0, 0),[],[])\'], [\'SO(1,10,CRV,6,0,1-2,(0, 0),[],[])\']], [["GO(1,10,FST,7,0,0-1,(\'?\', 179),[\'2B\'],[])"], [\'SO(1,10,CRV,7,0,0-2,(0, 0),[],[(9, 1, 1), (8, 2, 2), (5, 3, 3)])\'], [\'SO(1,10,CRV,7,0,0-2,(0, 0),[],[])\'], [\'SO(1,10,SPIT,7,0,0-2,(0, 0),[],[(8, 1, 1)])\']], [["GO(1,10,FST,5,0,0-1,(\'?\', 90),[\'P\'],[])"], ["1B(1,10,FST,0,0,0-2,(\'?\', 244),[\'RF\'],[(1, 0, 1)])"], ["1B(1,10,FST,4,0,0-0,(\'?\', 81),[\'RF\'],[(1, 0, 1), (9, 1, 2), (8, 2, 3)])"], [\'SO(1,10,FST,7,0,0-2,(0, 0),[],[])\']], [[\'SO(1,10,CHNG,3,0,0-2,(0, 0),[],[])\'], ["GO(1,10,SLD,6,0,0-0,(\'?\', 1),[\'C\'],[])"], [\'SO(1,10,KNCK,2,0,0-2,(0, 0),[],[(9, 2, 2)])\'], [\'SO(1,10,CHNG,6,0,0-2,(0, 0),[],[])\'], ["AO(1,10,SPIT,0,0,1-2,(\'?\', 244),[\'RF\'],[])"]], [[\'SO(1,10,SINK,2,0,0-2,(0, 0),[],[])\'], [\'SO(1,10,FORK,5,0,0-2,(0, 0),[],[])\'], ["GO(1,10,SPIT,7,0,0-2,(\'?\', 35),[\'P\'],[])"], [\'SO(1,10,KNCK,2,0,0-2,(0, 0),[],[(9, 2, 2)])\']], [[\'SO(1,10,KNCK,8,0,0-2,(0, 0),[],[])\'], ["GO(1,10,KNCK,0,0,2-2,(\'?\', 437),[\'2B\'],[])"], [\'SO(1,10,FORK,1,0,1-2,(0, 0),[],[])\'], ["AO(1,10,FORK,7,0,0-0,(\'?\', 72),[\'P\'],[])"]], [["GO(1,10,CRV,8,0,0-0,(\'?\', 362),[\'2B\'],[])"], ["AO(1,10,FORK,5,0,1-1,(\'?\', 316),[\'RF\'],[])"], ["GO(1,10,SPIT,3,0,0-0,(\'?\', 370),[\'SS\'],[])"], ["GO(1,10,SLD,3,0,0-0,(\'?\', 397),[\'2B\'],[])"]], [[\'SO(1,10,SPIT,1,0,0-2,(0, 0),[],[])\'], ["1B(1,10,CRV,0,0,0-1,(\'?\', 186),[\'LF\'],[(1, 0, 1), (7, 1, 2)])"], [\'SO(1,10,CRV,2,0,0-2,(0, 0),[],[])\'], ["AO(1,10,FORK,7,0,0-2,(\'?\', 60),[\'P\'],[])"]], [["GO(1,10,CHNG,3,0,0-0,(\'?\', 199),[\'SS\'],[])"], ["GO(1,10,SLD,7,0,0-0,(\'?\', 384),[\'2B\'],[(9, 1, 1)])"], [\'SO(1,10,CRV,4,0,2-2,(0, 0),[],[])\'], ["HR(1,10,SPIT,4,0,0-2,(\'?\', 422),[\'RF\'],[(1, 0, 0)])"]], [["1B(1,10,SLD,4,0,1-0,(\'?\', 186),[\'CF\'],[(1, 0, 1)])"], ["GO(1,10,CHNG,5,0,0-0,(\'?\', 318),[\'SS\'],[])"], [\'SO(1,10,SLD,4,0,0-2,(0, 0),[],[])\'], [\'SO(1,10,FST,6,0,0-2,(0, 0),[],[(8, 1, 1)])\']], [[\'SO(1,10,FST,7,0,0-2,(0, 0),[],[])\'], ["GO(1,10,FST,6,0,0-2,(\'?\', 314),[\'1B\'],[])"], ["AO(1,10,SPIT,3,0,0-1,(\'?\', 143),[\'3B\'],[(9, 2, 2)])"], ["1B(1,10,FST,0,0,0-0,(\'?\', 188),[\'CF\'],[(1, 0, 1)])"]], [[\'SO(1,10,SINK,4,0,0-2,(0, 0),[],[])\'], [\'SO(1,10,CRV,2,0,0-2,(0, 0),[],[])\'], ["1B(1,10,KNCK,6,0,2-2,(\'?\', 185),[\'LF\'],[(1, 0, 1)])"], [\'SO(1,10,KNCK,0,0,0-2,(0, 0),[],[])\']], [["1B(1,10,CRV,3,0,0-0,(\'?\', 329),[\'CF\'],[(1, 0, 1)])"], [\'SO(1,10,SPIT,1,0,1-2,(0, 0),[],[])\'], ["AO(1,10,CHNG,1,0,0-1,(\'?\', 257),[\'LF\'],[])"], [\'SO(1,10,KNCK,3,0,1-2,(0, 0),[],[(8, 1, 1)])\'], ["1B(1,10,CHNG,0,0,0-0,(\'?\', 414),[\'CF\'],[(1, 0, 1), (9, 1, 2), (7, 2, 3)])"]], [[\'SO(1,10,CRV,4,0,0-2,(0, 0),[],[])\'], ["3B(1,10,KNCK,4,0,0-0,(\'?\', 235),[\'RF\'],[(1, 0, 3)])"], [\'SO(1,10,KNCK,7,0,0-2,(0, 0),[],[])\'], ["1B(1,10,FORK,7,0,1-1,(\'?\', 299),[\'CF\'],[(1, 0, 1), (8, 2, 3), (7, 3, 0)])"]], [[\'SO(1,10,CHNG,1,0,0-2,(0, 0),[],[])\'], [\'SO(1,10,FORK,8,0,1-2,(0, 0),[],[])\'], ["1B(1,10,FORK,3,0,0-0,(\'?\', 55),[\'RF\'],[(1, 0, 1)])"], [\'SO(1,10,KNCK,0,0,0-2,(0, 0),[],[(9, 1, 1), (7, 2, 2), (6, 3, 3)])\']], [["AO(1,10,CRV,0,0,1-2,(\'?\', 263),[\'RF\'],[])"], ["AO(1,10,FST,2,0,0-0,(\'?\', 239),[\'CF\'],[])"], [\'SO(1,10,FST,0,0,1-2,(0, 0),[],[])\'], [\'SO(1,10,KNCK,0,0,1-2,(0, 0),[],[(7, 1, 1)])\'], [\'SO(1,10,SLD,4,0,1-2,(0, 0),[],[])\']], [[\'SO(1,10,SPIT,5,0,0-2,(0, 0),[],[])\'], ["AO(1,10,CHNG,3,0,0-1,(\'?\', 234),[\'CF\'],[])"], ["HR(1,10,CRV,6,0,0-1,(\'?\', 448),[\'LF\'],[(1, 0, 0), (8, 1, 0), (7, 2, 0)])"], ["AO(1,10,SPIT,4,0,0-1,(\'?\', 248),[\'LF\'],[])"]], [["AO(1,10,SPIT,8,0,0-0,(\'?\', 248),[\'LF\'],[])"], [\'SO(1,10,SLD,1,0,1-2,(0, 0),[],[])\'], [\'SO(1,10,SLD,5,0,0-2,(0, 0),[],[])\'], [\'SO(1,10,SLD,3,0,0-2,(0, 0),[],[(9, 1, 1)])\']], [["GO(1,10,CHNG,5,0,0-0,(\'?\', 282),[\'SS\'],[])"], [\'SO(1,10,KNCK,5,0,0-2,(0, 0),[],[(9, 1, 1)])\'], ["AO(1,10,SLD,4,0,0-0,(\'?\', 277),[\'CF\'],[])"], ["GO(1,10,CHNG,0,0,0-0,(\'?\', 75),[\'P\'],[])"], ["HR(1,10,SPIT,6,0,0-2,(\'?\', 446),[\'CF\'],[(1, 0, 0), (8, 1, 0)])"]], [[\'SO(1,10,FST,8,0,0-2,(0, 0),[],[])\'], ["AO(1,10,CRV,6,0,0-0,(\'?\', 63),[\'P\'],[(9, 2, 2)])"], [\'SO(1,10,CHNG,0,0,1-2,(0, 0),[],[])\'], ["GO(1,10,SLD,6,0,1-1,(\'?\', 37),[\'P\'],[])"]], [[\'SO(1,10,FORK,0,0,0-2,(0, 0),[],[])\'], ["GO(1,10,KNCK,7,0,0-2,(\'?\', 266),[\'2B\'],[(9, 1, 1)])"], [\'SO(1,10,FORK,1,0,0-2,(0, 0),[],[])\'], [\'SO(1,10,FORK,4,0,0-2,(0, 0),[],[])\']], [["1B(1,10,FORK,3,0,0-0,(\'?\', 319),[\'CF\'],[(1, 0, 1)])"], ["HR(1,10,SPIT,4,0,0-1,(\'?\', 450),[\'CF\'],[(1, 0, 0)])"], [\'SO(1,10,SPIT,3,0,0-2,(0, 0),[],[])\'], [\'SO(1,10,SINK,0,0,0-2,(0, 0),[],[])\'], [\'SO(1,10,CHNG,6,0,0-2,(0, 0),[],[])\'], [\'SO(1,10,FORK,4,0,0-2,(0, 0),[],[])\']], [[\'SO(1,10,SINK,4,0,0-2,(0, 0),[],[])\'], [\'SO(1,10,CHNG,2,0,0-2,(0, 0),[],[])\'], [\'SO(1,10,KNCK,4,0,0-2,(0, 0),[],[])\'], [\'SO(1,10,KNCK,2,0,0-2,(0, 0),[],[(9, 3, 3)])\'], [\'SO(1,10,SINK,3,0,1-2,(0, 0),[],[])\']], [["GO(1,10,CHNG,4,0,2-0,(\'?\', 61),[\'P\'],[])"], [\'SO(1,10,FORK,2,0,1-2,(0, 0),[],[])\'], ["GO(1,10,SLD,2,0,0-0,(\'?\', 331),[\'1B\'],[])"], ["GO(1,10,FORK,7,0,0-1,(\'?\', 224),[\'3B\'],[])"]], [["GO(1,10,SINK,0,0,0-0,(\'?\', 376),[\'3B\'],[])"], [\'SO(1,10,CHNG,2,0,0-2,(0, 0),[],[(9, 3, 3)])\'], [\'SO(1,10,FORK,3,0,0-2,(0, 0),[],[])\'], [\'SO(1,10,FST,3,0,0-2,(0, 0),[],[])\']], [[\'SO(1,10,SINK,2,0,0-2,(0, 0),[],[])\'], ["AO(1,10,KNCK,0,0,0-0,(\'?\', 74),[\'P\'],[])"], [\'SO(1,10,FST,6,0,1-2,(0, 0),[],[])\'], ["GO(1,10,KNCK,3,0,0-0,(\'?\', 210),[\'3B\'],[(9, 1, 1)])"], [\'SO(1,10,FST,5,0,0-2,(0, 0),[],[])\']], [["GO(1,10,KNCK,6,0,1-0,(\'?\', 240),[\'SS\'],[])"], ["AO(1,10,KNCK,1,0,0-0,(\'?\', 280),[\'CF\'],[])"], ["AO(1,10,SPIT,0,0,0-0,(\'?\', 132),[\'SS\'],[])"], ["AO(1,10,KNCK,6,0,0-1,(\'?\', 123),[\'1B\'],[])"]], [[\'SO(1,10,SPIT,2,0,0-2,(0, 0),[],[])\'], [\'SO(1,10,FORK,7,0,1-2,(0, 0),[],[])\'], [\'SO(1,10,KNCK,3,0,0-2,(0, 0),[],[(8, 1, 1)])\'], ["1B(1,10,KNCK,0,0,0-0,(\'?\', 163),[\'LF\'],[(1, 0, 1)])"]], [[\'SO(1,10,SLD,3,0,0-2,(0, 0),[],[])\'], [\'SO(1,10,CHNG,4,0,1-2,(0, 0),[],[])\'], [\'SO(1,10,FST,0,0,0-2,(0, 0),[],[])\'], [\'SO(1,10,FST,1,0,0-2,(0, 0),[],[(8, 1, 1)])\'], ["GO(1,10,SPIT,0,0,0-2,(\'?\', 407),[\'2B\'],[])"], [\'SO(1,10,FORK,8,0,0-2,(0, 0),[],[])\'], [\'SO(1,10,SLD,5,0,1-2,(0, 0),[],[])\']], [[\'SO(1,10,SLD,6,0,0-2,(0, 0),[],[])\'], [\'SO(1,10,FST,8,0,0-2,(0, 0),[],[(8, 2, 2)])\'], [\'SO(1,10,CHNG,5,0,1-2,(0, 0),[],[])\'], [\'SO(1,10,FST,7,0,0-2,(0, 0),[],[])\']], [[\'SO(1,10,KNCK,3,0,0-2,(0, 0),[],[])\'], ["GO(1,10,SLD,2,0,0-0,(\'?\', 102),[\'3B\'],[(8, 1, 1)])"], ["1B(1,10,KNCK,2,0,0-1,(\'?\', 188),[\'RF\'],[(1, 0, 1)])"], ["GO(1,10,SLD,5,0,0-1,(\'?\', 79),[\'P\'],[])"], ["1B(1,10,FST,6,0,0-0,(\'?\', 222),[\'CF\'],[(1, 0, 1)])"], ["AO(1,10,SINK,0,0,0-0,(\'?\', 258),[\'CF\'],[(9, 2, 2)])"]], [[\'SO(1,10,SINK,0,0,0-2,(0, 0),[],[])\'], ["AO(1,10,KNCK,1,0,0-0,(\'?\', 133),[\'SS\'],[])"], ["AO(1,10,FORK,1,0,0-1,(\'?\', 334),[\'CF\'],[(9, 1, 1)])"], [\'SO(1,10,SLD,1,0,1-2,(0, 0),[],[(9, 1, 1), (7, 2, 2)])\'], [\'SO(1,10,SLD,7,0,1-2,(0, 0),[],[])\'], [\'SO(1,10,CRV,1,0,0-2,(0, 0),[],[])\'], [\'SO(1,10,SLD,2,0,0-2,(0, 0),[],[])\'], ["GO(1,10,KNCK,0,0,2-2,(\'?\', 404),[\'1B\'],[])"]], [[\'SO(1,10,FORK,0,0,0-2,(0, 0),[],[])\'], ["1B(1,10,CHNG,0,0,1-1,(\'?\', 194),[\'LF\'],[(1, 0, 1)])"], ["1B(1,10,CRV,0,0,0-0,(\'?\', 166),[\'RF\'],[(1, 0, 1)])"], [\'SO(1,10,CHNG,6,0,0-2,(0, 0),[],[])\'], [\'SO(1,10,FORK,1,0,1-2,(0, 0),[],[(8, 3, 3)])\']], [["2B(1,10,FORK,5,0,0-1,(\'?\', 398),[\'LF\'],[(1, 0, 2)])"], [\'SO(1,10,SLD,8,0,0-2,(0, 0),[],[(9, 1, 1)])\'], [\'SO(1,10,SLD,6,0,0-2,(0, 0),[],[(7, 1, 1)])\'], ["1B(1,10,CRV,5,0,0-0,(\'?\', 320),[\'CF\'],[(1, 0, 1), (9, 1, 2)])"]], [["2B(1,10,CHNG,4,0,0-2,(\'?\', 378),[\'LF\'],[(1, 0, 2)])"], ["1B(1,10,SINK,0,0,2-2,(\'?\', 189),[\'CF\'],[(1, 0, 1), (8, 1, 2)])"], ["AO(1,10,KNCK,4,0,0-1,(\'?\', 66),[\'P\'],[])"], ["3B(1,10,CRV,7,0,0-0,(\'?\', 33),[\'RF\'],[(1, 0, 3), (9, 1, 0)])"], ["GO(1,10,SINK,0,0,0-1,(\'?\', 288),[\'SS\'],[(7, 1, 1)])"]], [["GO(1,10,SINK,2,0,0-0,(\'?\', 395),[\'1B\'],[])"], ["GO(1,10,CHNG,7,0,0-2,(\'?\', 228),[\'SS\'],[(9, 1, 1)])"], ["GO(1,10,KNCK,2,0,0-0,(\'?\', 123),[\'2B\'],[])"], ["GO(1,10,CRV,3,0,0-0,(\'?\', 405),[\'2B\'],[(8, 1, 1), (7, 2, 2)])"]], [["AO(1,10,FORK,6,0,0-2,(\'?\', 115),[\'SS\'],[])"], ["HR(1,10,CHNG,5,0,0-0,(\'?\', 418),[\'RF\'],[(1, 0, 0), (7, 3, 0)])"], ["AO(1,10,CHNG,2,0,0-1,(\'?\', 273),[\'RF\'],[])"], ["GO(1,10,CHNG,1,0,0-1,(\'?\', 254),[\'1B\'],[(8, 1, 1)])"]], [["AO(1,10,KNCK,2,0,1-0,(\'?\', 24),[\'P\'],[])"], ["AO(1,10,FST,0,0,0-2,(\'?\', 34),[\'P\'],[(8, 1, 1)])"], [\'SO(1,10,FORK,5,0,0-2,(0, 0),[],[])\'], [\'SO(1,10,FST,2,0,0-2,(0, 0),[],[(9, 1, 1), (8, 3, 3)])\']], [[\'SO(1,10,FORK,4,0,1-2,(0, 0),[],[])\'], [\'SO(1,10,KNCK,6,0,1-2,(0, 0),[],[])\'], ["AO(1,10,SLD,8,0,1-0,(\'?\', 343),[\'RF\'],[])"], [\'SO(1,10,FST,1,0,1-2,(0, 0),[],[])\'], ["AO(1,10,SINK,4,0,0-2,(\'?\', 225),[\'CF\'],[])"]], [[\'SO(1,10,CHNG,6,0,0-2,(0, 0),[],[])\'], [], ["AO(1,10,FST,8,0,0-0,(\'?\', 227),[\'RF\'],[])"], ["GO(1,10,CHNG,1,0,2-1,(\'?\', 422),[\'3B\'],[])"]], [[\'SO(1,10,FST,6,0,1-2,(0, 0),[],[])\'], [\'SO(1,10,SPIT,6,0,2-2,(0, 0),[],[])\'], ["GO(1,10,KNCK,7,0,0-0,(\'?\', 107),[\'2B\'],[])"], ["GO(1,10,CHNG,0,0,0-1,(\'?\', 191),[\'3B\'],[(8, 2, 2)])"]], [[\'SO(1,10,FST,5,0,0-2,(0, 0),[],[])\'], [\'SO(1,10,SINK,1,0,0-2,(0, 0),[],[])\'], [\'SO(1,10,CRV,7,0,0-2,(0, 0),[],[])\'], [\'SO(1,10,FST,7,0,1-2,(0, 0),[],[])\']], [["GO(1,10,SINK,1,0,0-1,(\'?\', 277),[\'1B\'],[])"], ["AO(1,10,SLD,4,0,0-2,(\'?\', 79),[\'P\'],[(8, 1, 1)])"], [\'SO(1,10,KNCK,6,0,0-2,(0, 0),[],[])\'], ["AO(1,10,CHNG,8,0,0-0,(\'?\', 297),[\'CF\'],[])"]], [[\'SO(1,10,CHNG,2,0,0-2,(0, 0),[],[])\'], [\'SO(1,10,FORK,7,0,0-2,(0, 0),[],[(8, 1, 1)])\'], [\'SO(1,10,SPIT,5,0,0-2,(0, 0),[],[])\'], [\'SO(1,10,CHNG,1,0,0-2,(0, 0),[],[(9, 1, 1)])\']], [["HR(1,10,SPIT,7,0,0-1,(\'?\', 414),[\'LF\'],[(1, 0, 0)])"], ["GO(1,10,SLD,6,0,0-0,(\'?\', 210),[\'3B\'],[])"], ["GO(1,10,SLD,5,0,1-1,(\'?\', 73),[\'P\'],[])"], ["GO(1,10,KNCK,7,0,0-1,(\'?\', 165),[\'2B\'],[(8, 1, 1)])"]], [["GO(1,10,SLD,7,0,2-1,(\'?\', 313),[\'3B\'],[])"], [\'SO(1,10,KNCK,7,0,0-2,(0, 0),[],[])\'], ["GO(1,10,SINK,1,0,0-0,(\'?\', 70),[\'P\'],[])"], ["GO(1,10,SLD,5,0,0-0,(\'?\', 349),[\'SS\'],[])"]], [["GO(1,10,CHNG,7,0,0-0,(\'?\', 324),[\'SS\'],[])"], [\'SO(1,10,CRV,3,0,0-2,(0, 0),[],[])\'], [\'SO(1,10,CRV,7,0,0-2,(0, 0),[],[(9, 2, 2)])\'], [\'SO(1,10,SINK,7,0,0-2,(0, 0),[],[(8, 1, 1)])\']], [["1B(1,10,KNCK,4,0,0-0,(\'?\', 193),[\'CF\'],[(1, 0, 1)])"], ["GO(1,10,CRV,8,0,0-1,(\'?\', 135),[\'1B\'],[])"], [\'SO(1,10,SPIT,2,0,0-2,(0, 0),[],[])\'], ["1B(1,10,SLD,6,0,0-2,(\'?\', 208),[\'LF\'],[(1, 0, 1)])"]], [["AO(1,10,SINK,6,0,1-0,(\'?\', 279),[\'CF\'],[])"], [\'SO(1,10,KNCK,8,0,0-2,(0, 0),[],[])\'], [\'SO(1,10,SLD,6,0,1-2,(0, 0),[],[])\'], [\'SO(1,10,SLD,4,0,0-2,(0, 0),[],[])\']], [["1B(1,10,SLD,5,0,3-2,(\'?\', 162),[\'RF\'],[(1, 0, 1)])"], ["GO(1,10,CHNG,3,0,1-2,(\'?\', 73),[\'P\'],[])"], [\'SO(1,10,SINK,5,0,0-2,(0, 0),[],[])\'], [\'SO(1,10,CRV,5,0,0-2,(0, 0),[],[])\']], [[\'SO(1,10,FST,3,0,1-2,(0, 0),[],[])\'], [\'SO(1,10,FORK,3,0,0-2,(0, 0),[],[])\'], [\'SO(1,10,CHNG,4,0,0-2,(0, 0),[],[])\'], ["1B(1,10,CHNG,8,0,0-1,(\'?\', 313),[\'CF\'],[(1, 0, 1)])"], ["AO(1,10,SINK,6,0,0-0,(\'?\', 20),[\'P\'],[])"], ["2B(1,10,KNCK,7,0,0-2,(\'?\', 383),[\'LF\'],[(1, 0, 2)])"]], [[\'SO(1,10,KNCK,6,0,0-2,(0, 0),[],[])\'], [\'SO(1,10,CHNG,5,0,0-2,(0, 0),[],[])\'], ["1B(1,10,SINK,3,0,0-2,(\'?\', 199),[\'LF\'],[(1, 0, 1)])"], [\'SO(1,10,CHNG,7,0,1-2,(0, 0),[],[])\']], [["GO(1,10,SINK,6,0,0-0,(\'?\', 195),[\'3B\'],[])"], ["2B(1,10,KNCK,4,0,1-2,(\'?\', 368),[\'CF\'],[(1, 0, 2), (8, 1, 3)])"], ["GO(1,10,CRV,7,0,0-2,(\'?\', 198),[\'SS\'],[(8, 1, 1)])"], ["HR(1,10,FORK,5,0,1-2,(\'?\', 440),[\'CF\'],[(1, 0, 0)])"]], [[\'SO(1,10,SINK,3,0,0-2,(0, 0),[],[])\'], ["3B(1,10,SPIT,7,0,0-2,(\'?\', 393),[\'LF\'],[(1, 0, 3), (9, 3, 0)])"], ["AO(1,10,SINK,7,0,0-1,(\'?\', 100),[\'3B\'],[])"], [\'SO(1,10,SPIT,4,0,0-2,(0, 0),[],[])\']], [["AO(1,10,FORK,1,0,0-0,(\'?\', 242),[\'CF\'],[])"], [\'SO(1,10,SINK,7,0,0-2,(0, 0),[],[])\'], ["AO(1,10,SPIT,7,0,0-0,(\'?\', 299),[\'LF\'],[])"], [\'SO(1,10,FST,1,0,0-2,(0, 0),[],[])\']], [["1B(1,10,FORK,7,0,0-2,(\'?\', 221),[\'CF\'],[(1, 0, 1)])"], [\'SO(1,10,SINK,4,0,0-2,(0, 0),[],[(9, 2, 2)])\'], ["GO(1,10,SPIT,1,0,0-2,(\'?\', 262),[\'3B\'],[])"], [\'SO(1,10,SLD,8,0,0-2,(0, 0),[],[])\']], [["GO(1,10,CRV,8,0,0-1,(\'?\', 157),[\'1B\'],[])"], [\'SO(1,10,CRV,5,0,0-2,(0, 0),[],[])\'], [\'SO(1,10,KNCK,4,0,1-2,(0, 0),[],[])\'], [\'SO(1,10,SINK,2,0,1-2,(0, 0),[],[])\']], [["AO(1,10,SPIT,1,0,0-0,(\'?\', 269),[\'LF\'],[])"], [\'SO(1,10,FORK,1,0,0-2,(0, 0),[],[(8, 1, 1)])\'], [\'SO(1,10,FORK,7,0,0-2,(0, 0),[],[(9, 1, 1)])\'], ["GO(1,10,FST,2,0,0-2,(\'?\', 419),[\'2B\'],[])"]], [[\'SO(1,10,FST,2,0,0-2,(0, 0),[],[])\'], ["1B(1,10,FST,4,0,0-0,(\'?\', 174),[\'CF\'],[(1, 0, 1)])"], ["AO(1,10,CRV,0,0,0-1,(\'?\', 96),[\'P\'],[])"], [\'SO(1,10,CHNG,6,0,0-2,(0, 0),[],[])\']], [["AO(1,10,SINK,6,0,0-0,(\'?\', 316),[\'CF\'],[])"], ["AO(1,10,SPIT,5,0,0-1,(\'?\', 328),[\'CF\'],[])"], [\'SO(1,10,SINK,2,0,0-2,(0, 0),[],[])\'], [\'SO(1,10,SINK,0,0,1-2,(0, 0),[],[(7, 3, 3)])\']], [["GO(1,10,CRV,5,0,0-1,(\'?\', 58),[\'P\'],[])"], [\'SO(1,10,KNCK,1,0,0-2,(0, 0),[],[(9, 3, 3)])\'], [\'SO(1,10,FST,8,0,0-2,(0, 0),[],[])\'], ["AO(1,10,CRV,7,0,0-0,(\'?\', 128),[\'3B\'],[(8, 1, 1), (6, 2, 2)])"]], [["AO(1,10,KNCK,5,0,0-0,(\'?\', 85),[\'P\'],[])"], [\'SO(1,10,SINK,7,0,0-2,(0, 0),[],[(8, 1, 1)])\'], [\'SO(1,10,SPIT,3,0,0-2,(0, 0),[],[])\'], ["AO(1,10,SPIT,7,0,0-0,(\'?\', 325),[\'LF\'],[])"]], [["1B(1,10,CRV,0,0,0-1,(\'?\', 15),[\'CF\'],[(1, 0, 1)])"], ["AO(1,10,CRV,4,0,0-1,(\'?\', 233),[\'RF\'],[])"], ["AO(1,10,SPIT,3,0,1-2,(\'?\', 313),[\'CF\'],[])"], ["HR(1,10,CHNG,5,0,0-2,(\'?\', 402),[\'RF\'],[(1, 0, 0)])"]], [["AO(1,10,CHNG,7,0,0-2,(\'?\', 322),[\'LF\'],[])"], ["GO(1,10,KNCK,2,0,0-0,(\'?\', 447),[\'2B\'],[])"], [\'SO(1,10,FST,2,0,2-2,(0, 0),[],[])\'], ["1B(1,10,CHNG,0,0,0-0,(\'?\', 386),[\'CF\'],[(1, 0, 1)])"]], [["AO(1,10,CRV,8,0,0-0,(\'?\', 6),[\'C\'],[])"], [\'SO(1,10,FORK,6,0,0-2,(0, 0),[],[(8, 1, 1), (7, 2, 2)])\'], ["AO(1,10,KNCK,3,0,0-1,(\'?\', 125),[\'1B\'],[])"], ["2B(1,10,SLD,1,0,0-2,(\'?\', 397),[\'RF\'],[(1, 0, 2), (9, 3, 0)])"]], [["1B(1,10,SPIT,7,0,1-0,(\'?\', 356),[\'LF\'],[(1, 0, 1)])"], [\'SO(1,10,SINK,2,0,0-2,(0, 0),[],[])\'], ["GO(1,10,CHNG,3,0,0-0,(\'?\', 359),[\'SS\'],[])"], ["AO(1,10,FORK,3,0,0-2,(\'?\', 257),[\'RF\'],[(8, 1, 1)])"]], [["1B(1,10,CHNG,5,0,0-1,(\'?\', 273),[\'LF\'],[(1, 0, 1)])"], ["GO(1,10,SPIT,4,0,0-0,(\'?\', 227),[\'2B\'],[(7, 1, 1)])"], ["GO(1,10,FST,3,0,1-1,(\'?\', 390),[\'SS\'],[])"], ["GO(1,10,FORK,7,0,0-1,(\'?\', 376),[\'1B\'],[])"]], [[\'SO(1,10,SLD,8,0,0-2,(0, 0),[],[])\'], [\'SO(1,10,SINK,5,0,0-2,(0, 0),[],[(9, 1, 1)])\'], ["1B(1,10,SLD,8,0,2-2,(\'?\', 208),[\'LF\'],[(1, 0, 1)])"], [\'SO(1,10,KNCK,4,0,0-2,(0, 0),[],[])\']], [[\'SO(1,10,FST,7,0,0-2,(0, 0),[],[])\'], ["GO(1,10,FORK,6,0,0-0,(\'?\', 58),[\'P\'],[(9, 1, 1)])"], ["3B(1,10,CRV,1,0,0-1,(\'?\', 348),[\'RF\'],[(1, 0, 3), (9, 1, 0)])"], ["1B(1,10,CHNG,0,0,0-0,(\'?\', 275),[\'CF\'],[(1, 0, 1), (8, 1, 2), (7, 3, 0)])"]], [[\'SO(1,10,CRV,2,0,0-2,(0, 0),[],[])\'], [\'SO(1,10,SLD,6,0,0-2,(0, 0),[],[])\'], ["AO(1,10,FORK,2,0,1-1,(\'?\', 295),[\'LF\'],[])"], ["AO(1,10,CHNG,2,0,3-2,(\'?\', 226),[\'CF\'],[])"]], [[\'SO(1,10,FORK,0,0,0-2,(0, 0),[],[])\'], ["GO(1,10,KNCK,3,0,0-2,(\'?\', 30),[\'P\'],[(9, 1, 1)])"], [\'SO(1,10,CRV,1,0,0-2,(0, 0),[],[])\'], [\'SO(1,10,CHNG,3,0,0-2,(0, 0),[],[(8, 2, 2)])\']], [["HR(1,10,SINK,5,0,0-0,(\'?\', 421),[\'RF\'],[(1, 0, 0)])"], ["AO(1,10,SINK,7,0,0-1,(\'?\', 302),[\'RF\'],[(8, 3, 3)])"], ["HR(1,10,FORK,1,0,0-0,(\'?\', 401),[\'CF\'],[(1, 0, 0)])"], ["1B(1,10,KNCK,2,0,1-0,(\'?\', 223),[\'LF\'],[(1, 0, 1)])"], ["AO(1,10,FST,1,0,0-1,(\'?\', 31),[\'P\'],[])"]], [[\'SO(1,10,SPIT,3,0,0-2,(0, 0),[],[])\'], ["AO(1,10,CRV,1,0,1-0,(\'?\', 16),[\'C\'],[])"], [\'SO(1,10,FORK,8,0,0-2,(0, 0),[],[])\'], [\'SO(1,10,CRV,0,0,0-2,(0, 0),[],[])\']], [["GO(1,10,CRV,2,0,0-0,(\'?\', 169),[\'1B\'],[])"], [\'SO(1,10,FORK,6,0,0-2,(0, 0),[],[])\'], ["GO(1,10,SINK,7,0,2-1,(\'?\', 308),[\'3B\'],[])"], ["AO(1,10,KNCK,5,0,0-1,(\'?\', 22),[\'P\'],[])"]], [[\'SO(1,10,FST,2,0,0-2,(0, 0),[],[])\'], ["1B(1,10,SLD,3,0,0-1,(\'?\', 183),[\'CF\'],[(1, 0, 1)])"], [\'SO(1,10,FORK,4,0,0-2,(0, 0),[],[])\'], ["1B(1,10,KNCK,4,0,0-0,(\'?\', 182),[\'RF\'],[(1, 0, 1), (8, 3, 0)])"]], [["2B(1,10,SLD,6,0,0-1,(\'?\', 380),[\'LF\'],[(1, 0, 2)])"], [\'SO(1,10,SINK,6,0,0-2,(0, 0),[],[])\'], ["1B(1,10,CHNG,0,0,0-0,(\'?\', 136),[\'CF\'],[(1, 0, 1)])"], ["AO(1,10,CRV,0,0,0-2,(\'?\', 278),[\'LF\'],[])"]], [["GO(1,10,SPIT,6,0,0-0,(\'?\', 390),[\'SS\'],[])"], ["AO(1,10,KNCK,8,0,1-0,(\'?\', 58),[\'P\'],[])"], ["AO(1,10,FORK,8,0,1-1,(\'?\', 146),[\'2B\'],[])"], ["GO(1,10,CRV,3,0,0-0,(\'?\', 43),[\'P\'],[(9, 2, 2)])"]], [[\'SO(1,10,FST,4,0,0-2,(0, 0),[],[])\'], [\'SO(1,10,FORK,5,0,0-2,(0, 0),[],[])\'], ["1B(1,10,CRV,1,0,1-2,(\'?\', 381),[\'CF\'],[(1, 0, 1)])"], [\'SO(1,10,CRV,5,0,0-2,(0, 0),[],[])\']], [["GO(1,10,KNCK,6,0,0-1,(\'?\', 429),[\'SS\'],[])"], ["AO(1,10,CRV,6,0,0-1,(\'?\', 265),[\'LF\'],[(9, 1, 1)])"], ["GO(1,10,CHNG,6,0,1-0,(\'?\', 316),[\'SS\'],[(7, 1, 1)])"], ["GO(1,10,KNCK,5,0,0-0,(\'?\', 356),[\'SS\'],[(9, 1, 1)])"]], [["GO(1,10,CHNG,8,0,0-1,(\'?\', 100),[\'2B\'],[])"], [\'SO(1,10,FORK,8,0,0-2,(0, 0),[],[])\'], ["3B(1,10,KNCK,6,0,0-1,(\'?\', 260),[\'LF\'],[(1, 0, 3), (9, 2, 0)])"], [\'SO(1,10,SINK,8,0,0-2,(0, 0),[],[(9, 1, 1)])\']], [["1B(1,10,SINK,5,0,0-0,(\'?\', 51),[\'CF\'],[(1, 0, 1)])"], ["GO(1,10,FORK,4,0,0-2,(\'?\', 369),[\'SS\'],[])"], [\'SO(1,10,KNCK,1,0,0-2,(0, 0),[],[(8, 1, 1)])\'], [\'SO(1,10,FORK,8,0,0-2,(0, 0),[],[(8, 1, 1)])\'], ["GO(1,10,SPIT,5,0,0-0,(\'?\', 318),[\'1B\'],[])"]], [[\'SO(1,10,FORK,1,0,0-2,(0, 0),[],[])\'], [\'SO(1,10,SPIT,2,0,0-2,(0, 0),[],[(8, 1, 1)])\'], [\'SO(1,10,FST,3,0,0-2,(0, 0),[],[])\'], ["AO(1,10,SLD,8,0,0-2,(\'?\', 48),[\'P\'],[])"]], [[\'SO(1,10,CHNG,8,0,1-2,(0, 0),[],[])\'], ["GO(1,10,SINK,7,0,1-0,(\'?\', 57),[\'P\'],[])"], [\'SO(1,10,CRV,7,0,1-2,(0, 0),[],[])\'], [\'SO(1,10,FORK,7,0,0-2,(0, 0),[],[(9, 1, 1)])\'], [\'SO(1,10,CRV,8,0,0-2,(0, 0),[],[])\'], ["GO(1,10,SLD,2,0,0-0,(\'?\', 98),[\'P\'],[(9, 1, 1), (7, 3, 3)])"]], [["AO(1,10,SINK,3,0,2-2,(\'?\', 312),[\'LF\'],[])"], ["AO(1,10,KNCK,0,0,0-1,(\'?\', 272),[\'LF\'],[])"], ["AO(1,10,FST,5,0,1-1,(\'?\', 334),[\'RF\'],[])"], [\'SO(1,10,FORK,1,0,0-2,(0, 0),[],[])\']], [[\'SO(1,10,SINK,0,0,0-2,(0, 0),[],[])\'], [\'SO(1,10,SPIT,8,0,0-2,(0, 0),[],[])\'], ["GO(1,10,CRV,1,0,0-0,(\'?\', 242),[\'2B\'],[(9, 1, 1), (8, 2, 2)])"], [\'SO(1,10,FST,1,0,0-2,(0, 0),[],[])\'], [\'SO(1,10,CRV,1,0,0-2,(0, 0),[],[])\']], [["GO(1,10,KNCK,4,0,0-0,(\'?\', 299),[\'SS\'],[])"], ["GO(1,10,FST,1,0,0-2,(\'?\', 80),[\'P\'],[])"], [\'SO(1,10,FORK,4,0,0-2,(0, 0),[],[])\'], [\'SO(1,10,SPIT,0,0,0-2,(0, 0),[],[])\']], [[\'SO(1,10,SLD,0,0,0-2,(0, 0),[],[])\'], [\'SO(1,10,CHNG,6,0,0-2,(0, 0),[],[(8, 1, 1)])\'], [\'SO(1,10,CHNG,0,0,0-2,(0, 0),[],[])\'], ["1B(1,10,CHNG,6,0,0-2,(\'?\', 184),[\'LF\'],[(1, 0, 1), (8, 2, 3)])"]]],\'totAtBats\':431,\'gamesPlayed\':100,\'wins\':47,\'losses\':53,\'totHits\':71,\'currentHitStreak\':49,\'longestHitStreak\':49,\'totCycles\':0,\'totHRs\':10,\'longestHR\':450,\'totGrandSlams\':0,\'tot1Bs\':44,\'tot2Bs\':9,\'tot3Bs\':8,\'totKd\':207,\'totDPHitInto\':0,\'totTPHitInto\':0,\'totWalks\':1,\'totHBP\':0,\'totIBB\':0,\'totRuns\':23,\'totRBIs\':24,\'totAtBatsWithRunnersInScoringPos\':56,\'totHitsWithRunnersInScoringPos\':26,\'totRBIsWithRunnersInScoringPos\':8,\'totRunnersLeftInScoringPos\':54},\'pitcherStats\':{\'statType\':\'PITS\',\'batterResults\':[],\'starts\':0,\'wins\':0,\'currentWinStreak\':0,\'longestWinStreak\':0,\'losses\':0,\'currentLosingStreak\':0,\'longestLosingStreak\':0,\'saves\':0,\'shutouts\':0,\'noHitters\':0,\'perfectGames\':0,\'totBattersFaced\':0,\'totKs\':0,\'totWalksThrown\':0,\'totOutsThrown\':0,\'totDPsThrown\':0,\'totTPsThrown\':0,\'totEarnedRuns\':0,\'totPitchesThrown\':0,\'fastestPitchThrown\':0,\'totFastballsThrown\':0,\'totCurveballsThrown\':0,\'totSlidersThrown\':0,\'totChangeupsThrown\':0,\'totKnuckleballsThrown\':0,\'totSinkersThrown\':0,\'totForkballsThrown\':0,\'totSpitballsThrown\':0,\'totStrikesThrown\':0,\'totBallsThrown\':0,\'totHitsAllowed\':0,\'totBattersHBP\':0,\'totHRsAllowed\':0,\'totGrandSlamsAllowed\':0,\'longestHRAllowed\':0,\'tot1BsAllowed\':0,\'tot2BsAllowed\':0,\'tot3BsAllowed\':0}}'
b.